; Function Attrs: nounwind uwtable
define dso_local noundef zeroext i1 @list_member(ptr noundef readonly captures(address_is_null) %0, ptr noundef %1) local_unnamed_addr #0 {
  %3 = getelementptr inbounds nuw i8, ptr %0, i64 4
  %.not = icmp eq ptr %0, null
  br i1 %.not, label %.critedge, label %.lr.ph

.lr.ph:                                           ; preds = %2
  %4 = getelementptr inbounds nuw i8, ptr %0, i64 16
  %5 = load i32, ptr %3, align 4
  %6 = icmp sgt i32 %5, 0
  br i1 %6, label %.lr.ph23, label %.critedge

7:                                                ; preds = %.lr.ph23
  %indvars.iv.next = add nuw nsw i64 %indvars.iv, 1
  %8 = load i32, ptr %3, align 4
  %9 = sext i32 %8 to i64
  %10 = icmp slt i64 %indvars.iv.next, %9
  br i1 %10, label %.lr.ph23, label %.critedge

.lr.ph23:                                         ; preds = %.lr.ph, %7
  %indvars.iv = phi i64 [ %indvars.iv.next, %7 ], [ 0, %.lr.ph ]
  %11 = load ptr, ptr %4, align 8
  %12 = getelementptr inbounds nuw %union.ListCell, ptr %11, i64 %indvars.iv
  %13 = load ptr, ptr %12, align 8
  %14 = tail call zeroext i1 @equal(ptr noundef %13, ptr noundef %1) #9
  br i1 %14, label %.critedge, label %7

.critedge:                                        ; preds = %.lr.ph23, %7, %.lr.ph, %2
  %.1 = phi i1 [ false, %2 ], [ false, %.lr.ph ], [ %14, %7 ], [ %14, %.lr.ph23 ]
  ret i1 %.1
}